; Function Attrs: nounwind uwtable
define ptr @l_Lake_registerJob___rarg___lambda__3(ptr noundef %0, ptr noundef %1, ptr noundef %2, ptr noundef %3, ptr noundef %4) #0 {
  %6 = getelementptr inbounds nuw i8, ptr %4, i64 32
  %7 = load ptr, ptr %6, align 8, !tbaa !4
  %8 = ptrtoint ptr %7 to i64
  %9 = and i64 %8, 1
  %.not = icmp eq i64 %9, 0
  br i1 %.not, label %10, label %lean_inc.exit20

10:                                               ; preds = %5
  %.val.i = load i32, ptr %7, align 4, !tbaa !8
  %11 = icmp sgt i32 %.val.i, 0
  br i1 %11, label %12, label %14, !prof !11

12:                                               ; preds = %10
  %13 = add nuw i32 %.val.i, 1
  store i32 %13, ptr %7, align 4, !tbaa !8
  br label %lean_inc.exit20

14:                                               ; preds = %10
  %.not.i21 = icmp eq i32 %.val.i, 0
  br i1 %.not.i21, label %lean_inc.exit20, label %15

15:                                               ; preds = %14
  tail call void @lean_inc_ref_cold(ptr noundef nonnull %7) #4
  br label %lean_inc.exit20

lean_inc.exit20:                                  ; preds = %15, %14, %12, %5
  %16 = ptrtoint ptr %4 to i64
  %17 = and i64 %16, 1
  %.not27 = icmp eq i64 %17, 0
  br i1 %.not27, label %18, label %lean_dec.exit

18:                                               ; preds = %lean_inc.exit20
  %19 = load i32, ptr %4, align 4, !tbaa !8
  %20 = icmp sgt i32 %19, 1
  br i1 %20, label %21, label %23, !prof !11

21:                                               ; preds = %18
  %22 = add nsw i32 %19, -1
  store i32 %22, ptr %4, align 4, !tbaa !8
  br label %lean_dec.exit

23:                                               ; preds = %18
  %.not.i = icmp eq i32 %19, 0
  br i1 %.not.i, label %lean_dec.exit, label %24

24:                                               ; preds = %23
  tail call void @lean_dec_ref_cold(ptr noundef nonnull %4) #4
  br label %lean_dec.exit

lean_dec.exit:                                    ; preds = %24, %23, %21, %lean_inc.exit20
  %25 = ptrtoint ptr %0 to i64
  %26 = and i64 %25, 1
  %.not28 = icmp eq i64 %26, 0
  br i1 %.not28, label %27, label %lean_inc.exit

27:                                               ; preds = %lean_dec.exit
  %.val.i22 = load i32, ptr %0, align 4, !tbaa !8
  %28 = icmp sgt i32 %.val.i22, 0
  br i1 %28, label %29, label %31, !prof !11

29:                                               ; preds = %27
  %30 = add nuw i32 %.val.i22, 1
  store i32 %30, ptr %0, align 4, !tbaa !8
  br label %lean_inc.exit

31:                                               ; preds = %27
  %.not.i23 = icmp eq i32 %.val.i22, 0
  br i1 %.not.i23, label %lean_inc.exit, label %32

32:                                               ; preds = %31
  tail call void @lean_inc_ref_cold(ptr noundef nonnull %0) #4
  br label %lean_inc.exit

lean_inc.exit:                                    ; preds = %32, %31, %29, %lean_dec.exit
  tail call void @lean_inc_heartbeat() #4
  %33 = tail call noalias ptr @mi_malloc_small(i64 noundef 32) #4
  %34 = icmp eq ptr %33, null
  br i1 %34, label %35, label %lean_alloc_closure.exit

35:                                               ; preds = %lean_inc.exit
  tail call void @lean_internal_panic_out_of_memory() #5
  unreachable

lean_alloc_closure.exit:                          ; preds = %lean_inc.exit
  %36 = getelementptr inbounds nuw i8, ptr %33, i64 4
  store i32 1, ptr %33, align 4, !tbaa !8
  store i32 -184549344, ptr %36, align 4
  %37 = getelementptr inbounds nuw i8, ptr %33, i64 8
  store ptr @l_Lake_registerJob___rarg___lambda__1, ptr %37, align 8, !tbaa !4
  %38 = getelementptr inbounds nuw i8, ptr %33, i64 16
  store i16 2, ptr %38, align 8, !tbaa !15
  %39 = getelementptr inbounds nuw i8, ptr %33, i64 18
  store i16 1, ptr %39, align 2, !tbaa !15
  %40 = getelementptr inbounds nuw i8, ptr %33, i64 24
  store ptr %0, ptr %40, align 8, !tbaa !4
  tail call void @lean_inc_heartbeat() #4
  %41 = tail call noalias ptr @mi_malloc_small(i64 noundef 40) #4
  %42 = icmp eq ptr %41, null
  br i1 %42, label %43, label %lean_alloc_closure.exit25

43:                                               ; preds = %lean_alloc_closure.exit
  tail call void @lean_internal_panic_out_of_memory() #5
  unreachable

lean_alloc_closure.exit25:                        ; preds = %lean_alloc_closure.exit
  %44 = getelementptr inbounds nuw i8, ptr %41, i64 4
  store i32 1, ptr %41, align 4, !tbaa !8
  store i32 -184549336, ptr %44, align 4
  %45 = getelementptr inbounds nuw i8, ptr %41, i64 8
  store ptr @l_ST_Prim_Ref_modifyUnsafe___rarg___boxed, ptr %45, align 8, !tbaa !4
  %46 = getelementptr inbounds nuw i8, ptr %41, i64 16
  store i16 3, ptr %46, align 8, !tbaa !15
  %47 = getelementptr inbounds nuw i8, ptr %41, i64 18
  store i16 2, ptr %47, align 2, !tbaa !15
  %48 = getelementptr inbounds nuw i8, ptr %41, i64 24
  store ptr %7, ptr %48, align 8, !tbaa !4
  %49 = getelementptr inbounds nuw i8, ptr %41, i64 32
  store ptr %33, ptr %49, align 8, !tbaa !4
  %50 = tail call ptr @lean_apply_2(ptr noundef %1, ptr noundef nonnull inttoptr (i64 1 to ptr), ptr noundef nonnull %41) #4
  tail call void @lean_inc_heartbeat() #4
  %51 = tail call noalias ptr @mi_malloc_small(i64 noundef 40) #4
  %52 = icmp eq ptr %51, null
  br i1 %52, label %53, label %lean_alloc_closure.exit26

53:                                               ; preds = %lean_alloc_closure.exit25
  tail call void @lean_internal_panic_out_of_memory() #5
  unreachable

lean_alloc_closure.exit26:                        ; preds = %lean_alloc_closure.exit25
  %54 = getelementptr inbounds nuw i8, ptr %51, i64 4
  store i32 1, ptr %51, align 4, !tbaa !8
  store i32 -184549336, ptr %54, align 4
  %55 = getelementptr inbounds nuw i8, ptr %51, i64 8
  store ptr @l_Lake_registerJob___rarg___lambda__2___boxed, ptr %55, align 8, !tbaa !4
  %56 = getelementptr inbounds nuw i8, ptr %51, i64 16
  store i16 3, ptr %56, align 8, !tbaa !15
  %57 = getelementptr inbounds nuw i8, ptr %51, i64 18
  store i16 2, ptr %57, align 2, !tbaa !15
  %58 = getelementptr inbounds nuw i8, ptr %51, i64 24
  store ptr %2, ptr %58, align 8, !tbaa !4
  %59 = getelementptr inbounds nuw i8, ptr %51, i64 32
  store ptr %0, ptr %59, align 8, !tbaa !4
  %60 = tail call ptr @lean_apply_4(ptr noundef %3, ptr noundef nonnull inttoptr (i64 1 to ptr), ptr noundef nonnull inttoptr (i64 1 to ptr), ptr noundef %50, ptr noundef nonnull %51) #4
  ret ptr %60
}